target datalayout = "e-m:e-p270:32:32-p271:32:32-p272:64:64-i64:64-i128:128-f80:128-n8:16:32:64-S128"
target triple = "x86_64-pc-linux-gnu"

%struct.mbedtls_ssl_config = type { i32, i32, i8, i8, i8, i8, i8, i8, i8, i8, i8, i8, i16, i8, i8, i8, ptr, i32, ptr, ptr, ptr, ptr, ptr, ptr, ptr, ptr, ptr, ptr, ptr, ptr, ptr, ptr, ptr, ptr, ptr, ptr, ptr, i64, ptr, ptr, ptr, ptr, ptr, ptr, ptr, ptr, %struct.mbedtls_mpi, %struct.mbedtls_mpi, ptr, i64, ptr, i64, ptr, i32, i32, i32, i32, [8 x i8], i32, i32, %union.mbedtls_ssl_user_data_t, ptr, ptr }
%struct.mbedtls_mpi = type { ptr, i16, i16 }
%union.mbedtls_ssl_user_data_t = type { i64 }
%struct.mbedtls_ssl_context = type { ptr, i32, i32, i32, i32, i32, ptr, ptr, ptr, ptr, ptr, ptr, ptr, ptr, ptr, ptr, ptr, ptr, ptr, ptr, ptr, ptr, ptr, ptr, ptr, ptr, ptr, ptr, ptr, ptr, ptr, ptr, ptr, i32, i64, i64, i16, i64, i64, i64, i64, i32, i32, i8, i8, i32, i8, ptr, ptr, ptr, ptr, ptr, ptr, ptr, i32, i64, i64, [8 x i8], i16, ptr, ptr, ptr, i64, i32, i64, [12 x i8], [12 x i8], [32 x i8], i8, i8, ptr, ptr, %union.mbedtls_ssl_user_data_t }

@.str.15 = private unnamed_addr constant [9 x i8] c"DTLSv1.2\00", align 1
@.str.16 = private unnamed_addr constant [15 x i8] c"unknown (DTLS)\00", align 1
@.str.17 = private unnamed_addr constant [8 x i8] c"TLSv1.2\00", align 1
@.str.18 = private unnamed_addr constant [8 x i8] c"TLSv1.3\00", align 1
@.str.19 = private unnamed_addr constant [8 x i8] c"unknown\00", align 1

; Function Attrs: nounwind uwtable
define hidden ptr @mbedtls_ssl_get_version(ptr noundef %0) #0 {
  %2 = alloca ptr, align 8
  %3 = alloca ptr, align 8
  store ptr %0, ptr %3, align 8, !tbaa !27
  %4 = load ptr, ptr %3, align 8, !tbaa !27
  %5 = getelementptr inbounds nuw %struct.mbedtls_ssl_context, ptr %4, i32 0, i32 0
  %6 = load ptr, ptr %5, align 8, !tbaa !30
  %7 = getelementptr inbounds nuw %struct.mbedtls_ssl_config, ptr %6, i32 0, i32 3
  %8 = load i8, ptr %7, align 1, !tbaa !35
  %9 = zext i8 %8 to i32
  %10 = icmp eq i32 %9, 1
  br i1 %10, label %11, label %17

11:                                               ; preds = %1
  %12 = load ptr, ptr %3, align 8, !tbaa !27
  %13 = getelementptr inbounds nuw %struct.mbedtls_ssl_context, ptr %12, i32 0, i32 4
  %14 = load i32, ptr %13, align 4, !tbaa !90
  switch i32 %14, label %16 [
    i32 771, label %15
  ]

15:                                               ; preds = %11
  store ptr @.str.15, ptr %2, align 8
  br label %24

16:                                               ; preds = %11
  store ptr @.str.16, ptr %2, align 8
  br label %24

17:                                               ; preds = %1
  %18 = load ptr, ptr %3, align 8, !tbaa !27
  %19 = getelementptr inbounds nuw %struct.mbedtls_ssl_context, ptr %18, i32 0, i32 4
  %20 = load i32, ptr %19, align 4, !tbaa !90
  switch i32 %20, label %23 [
    i32 771, label %21
    i32 772, label %22
  ]

21:                                               ; preds = %17
  store ptr @.str.17, ptr %2, align 8
  br label %24

22:                                               ; preds = %17
  store ptr @.str.18, ptr %2, align 8
  br label %24

23:                                               ; preds = %17
  store ptr @.str.19, ptr %2, align 8
  br label %24

24:                                               ; preds = %23, %22, %21, %16, %15
  %25 = load ptr, ptr %2, align 8
  ret ptr %25
}