; Function Attrs: mustprogress nofree norecurse nosync nounwind willreturn memory(read, inaccessiblemem: none) uwtable
define hidden nonnull ptr @mbedtls_ssl_get_version(ptr noundef readonly captures(none) %0) local_unnamed_addr #13 {
  %2 = load ptr, ptr %0, align 8, !tbaa !23
  %3 = getelementptr inbounds nuw i8, ptr %2, i64 9
  %4 = load i8, ptr %3, align 1, !tbaa !29
  %5 = icmp eq i8 %4, 1
  %6 = getelementptr inbounds nuw i8, ptr %0, i64 20
  %7 = load i32, ptr %6, align 4, !tbaa !84
  br i1 %5, label %8, label %9

8:                                                ; preds = %1
  %cond = icmp eq i32 %7, 771
  %.str.15..str.16 = select i1 %cond, ptr @.str.15, ptr @.str.16
  br label %10

9:                                                ; preds = %1
  %switch.selectcmp = icmp eq i32 %7, 772
  %switch.select = select i1 %switch.selectcmp, ptr @.str.18, ptr @.str.19
  %switch.selectcmp4 = icmp eq i32 %7, 771
  %switch.select5 = select i1 %switch.selectcmp4, ptr @.str.17, ptr %switch.select
  br label %10

10:                                               ; preds = %9, %8
  %.0 = phi ptr [ %.str.15..str.16, %8 ], [ %switch.select5, %9 ]
  ret ptr %.0
}